
chal:     file format elf64-x86-64


Disassembly of section .init:

0000000000401000 <_init>:
  401000:	f3 0f 1e fa          	endbr64
  401004:	48 83 ec 08          	sub    $0x8,%rsp
  401008:	48 8b 05 c9 2f 00 00 	mov    0x2fc9(%rip),%rax        # 403fd8 <__gmon_start__@Base>
  40100f:	48 85 c0             	test   %rax,%rax
  401012:	74 02                	je     401016 <_init+0x16>
  401014:	ff d0                	call   *%rax
  401016:	48 83 c4 08          	add    $0x8,%rsp
  40101a:	c3                   	ret

Disassembly of section .plt:

0000000000401020 <setbuf@plt-0x10>:
  401020:	ff 35 ca 2f 00 00    	push   0x2fca(%rip)        # 403ff0 <_GLOBAL_OFFSET_TABLE_+0x8>
  401026:	ff 25 cc 2f 00 00    	jmp    *0x2fcc(%rip)        # 403ff8 <_GLOBAL_OFFSET_TABLE_+0x10>
  40102c:	0f 1f 40 00          	nopl   0x0(%rax)

0000000000401030 <setbuf@plt>:
  401030:	ff 25 ca 2f 00 00    	jmp    *0x2fca(%rip)        # 404000 <setbuf@GLIBC_2.2.5>
  401036:	68 00 00 00 00       	push   $0x0
  40103b:	e9 e0 ff ff ff       	jmp    401020 <_init+0x20>

0000000000401040 <system@plt>:
  401040:	ff 25 c2 2f 00 00    	jmp    *0x2fc2(%rip)        # 404008 <system@GLIBC_2.2.5>
  401046:	68 01 00 00 00       	push   $0x1
  40104b:	e9 d0 ff ff ff       	jmp    401020 <_init+0x20>

0000000000401050 <printf@plt>:
  401050:	ff 25 ba 2f 00 00    	jmp    *0x2fba(%rip)        # 404010 <printf@GLIBC_2.2.5>
  401056:	68 02 00 00 00       	push   $0x2
  40105b:	e9 c0 ff ff ff       	jmp    401020 <_init+0x20>

0000000000401060 <fgets@plt>:
  401060:	ff 25 b2 2f 00 00    	jmp    *0x2fb2(%rip)        # 404018 <fgets@GLIBC_2.2.5>
  401066:	68 03 00 00 00       	push   $0x3
  40106b:	e9 b0 ff ff ff       	jmp    401020 <_init+0x20>

0000000000401070 <__isoc23_scanf@plt>:
  401070:	ff 25 aa 2f 00 00    	jmp    *0x2faa(%rip)        # 404020 <__isoc23_scanf@GLIBC_2.38>
  401076:	68 04 00 00 00       	push   $0x4
  40107b:	e9 a0 ff ff ff       	jmp    401020 <_init+0x20>

0000000000401080 <getchar@plt>:
  401080:	ff 25 a2 2f 00 00    	jmp    *0x2fa2(%rip)        # 404028 <getchar@GLIBC_2.2.5>
  401086:	68 05 00 00 00       	push   $0x5
  40108b:	e9 90 ff ff ff       	jmp    401020 <_init+0x20>

Disassembly of section .text:

0000000000401090 <_start>:
  401090:	f3 0f 1e fa          	endbr64
  401094:	31 ed                	xor    %ebp,%ebp
  401096:	49 89 d1             	mov    %rdx,%r9
  401099:	5e                   	pop    %rsi
  40109a:	48 89 e2             	mov    %rsp,%rdx
  40109d:	48 83 e4 f0          	and    $0xfffffffffffffff0,%rsp
  4010a1:	50                   	push   %rax
  4010a2:	54                   	push   %rsp
  4010a3:	45 31 c0             	xor    %r8d,%r8d
  4010a6:	31 c9                	xor    %ecx,%ecx
  4010a8:	48 c7 c7 8c 11 40 00 	mov    $0x40118c,%rdi
  4010af:	ff 15 13 2f 00 00    	call   *0x2f13(%rip)        # 403fc8 <__libc_start_main@GLIBC_2.34>
  4010b5:	f4                   	hlt
  4010b6:	66 2e 0f 1f 84 00 00 	cs nopw 0x0(%rax,%rax,1)
  4010bd:	00 00 00 

00000000004010c0 <_dl_relocate_static_pie>:
  4010c0:	f3 0f 1e fa          	endbr64
  4010c4:	c3                   	ret
  4010c5:	66 2e 0f 1f 84 00 00 	cs nopw 0x0(%rax,%rax,1)
  4010cc:	00 00 00 
  4010cf:	90                   	nop
  4010d0:	b8 40 40 40 00       	mov    $0x404040,%eax
  4010d5:	48 3d 40 40 40 00    	cmp    $0x404040,%rax
  4010db:	74 13                	je     4010f0 <_dl_relocate_static_pie+0x30>
  4010dd:	48 8b 05 ec 2e 00 00 	mov    0x2eec(%rip),%rax        # 403fd0 <_ITM_deregisterTMCloneTable@Base>
  4010e4:	48 85 c0             	test   %rax,%rax
  4010e7:	74 07                	je     4010f0 <_dl_relocate_static_pie+0x30>
  4010e9:	bf 40 40 40 00       	mov    $0x404040,%edi
  4010ee:	ff e0                	jmp    *%rax
  4010f0:	c3                   	ret
  4010f1:	0f 1f 40 00          	nopl   0x0(%rax)
  4010f5:	66 66 2e 0f 1f 84 00 	data16 cs nopw 0x0(%rax,%rax,1)
  4010fc:	00 00 00 00 
  401100:	be 40 40 40 00       	mov    $0x404040,%esi
  401105:	48 81 ee 40 40 40 00 	sub    $0x404040,%rsi
  40110c:	48 89 f0             	mov    %rsi,%rax
  40110f:	48 c1 ee 3f          	shr    $0x3f,%rsi
  401113:	48 c1 f8 03          	sar    $0x3,%rax
  401117:	48 01 c6             	add    %rax,%rsi
  40111a:	48 d1 fe             	sar    $1,%rsi
  40111d:	74 19                	je     401138 <_dl_relocate_static_pie+0x78>
  40111f:	48 8b 05 ba 2e 00 00 	mov    0x2eba(%rip),%rax        # 403fe0 <_ITM_registerTMCloneTable@Base>
  401126:	48 85 c0             	test   %rax,%rax
  401129:	74 0d                	je     401138 <_dl_relocate_static_pie+0x78>
  40112b:	bf 40 40 40 00       	mov    $0x404040,%edi
  401130:	ff e0                	jmp    *%rax
  401132:	66 0f 1f 44 00 00    	nopw   0x0(%rax,%rax,1)
  401138:	c3                   	ret
  401139:	0f 1f 80 00 00 00 00 	nopl   0x0(%rax)
  401140:	f3 0f 1e fa          	endbr64
  401144:	80 3d 0d 2f 00 00 00 	cmpb   $0x0,0x2f0d(%rip)        # 404058 <stdin@GLIBC_2.2.5+0x8>
  40114b:	75 13                	jne    401160 <_dl_relocate_static_pie+0xa0>
  40114d:	55                   	push   %rbp
  40114e:	48 89 e5             	mov    %rsp,%rbp
  401151:	e8 7a ff ff ff       	call   4010d0 <_dl_relocate_static_pie+0x10>
  401156:	c6 05 fb 2e 00 00 01 	movb   $0x1,0x2efb(%rip)        # 404058 <stdin@GLIBC_2.2.5+0x8>
  40115d:	5d                   	pop    %rbp
  40115e:	c3                   	ret
  40115f:	90                   	nop
  401160:	c3                   	ret
  401161:	0f 1f 40 00          	nopl   0x0(%rax)
  401165:	66 66 2e 0f 1f 84 00 	data16 cs nopw 0x0(%rax,%rax,1)
  40116c:	00 00 00 00 
  401170:	f3 0f 1e fa          	endbr64
  401174:	eb 8a                	jmp    401100 <_dl_relocate_static_pie+0x40>

0000000000401176 <win>:
  401176:	55                   	push   %rbp
  401177:	48 89 e5             	mov    %rsp,%rbp
  40117a:	48 8d 05 87 0e 00 00 	lea    0xe87(%rip),%rax        # 402008 <_IO_stdin_used+0x8>
  401181:	48 89 c7             	mov    %rax,%rdi
  401184:	e8 b7 fe ff ff       	call   401040 <system@plt>
  401189:	90                   	nop
  40118a:	5d                   	pop    %rbp
  40118b:	c3                   	ret

000000000040118c <main>:
  40118c:	55                   	push   %rbp
  40118d:	48 89 e5             	mov    %rsp,%rbp
  401190:	48 81 ec 10 01 00 00 	sub    $0x110,%rsp
  401197:	48 8b 05 a2 2e 00 00 	mov    0x2ea2(%rip),%rax        # 404040 <stdout@GLIBC_2.2.5>
  40119e:	be 00 00 00 00       	mov    $0x0,%esi
  4011a3:	48 89 c7             	mov    %rax,%rdi
  4011a6:	e8 85 fe ff ff       	call   401030 <setbuf@plt>
  4011ab:	48 8d 05 5e 0e 00 00 	lea    0xe5e(%rip),%rax        # 402010 <_IO_stdin_used+0x10>
  4011b2:	48 89 c7             	mov    %rax,%rdi
  4011b5:	b8 00 00 00 00       	mov    $0x0,%eax
  4011ba:	e8 91 fe ff ff       	call   401050 <printf@plt>
  4011bf:	48 8d 85 f8 fe ff ff 	lea    -0x108(%rbp),%rax
  4011c6:	48 8d 15 66 0e 00 00 	lea    0xe66(%rip),%rdx        # 402033 <_IO_stdin_used+0x33>
  4011cd:	48 89 c6             	mov    %rax,%rsi
  4011d0:	48 89 d7             	mov    %rdx,%rdi
  4011d3:	b8 00 00 00 00       	mov    $0x0,%eax
  4011d8:	e8 93 fe ff ff       	call   401070 <__isoc23_scanf@plt>
  4011dd:	e8 9e fe ff ff       	call   401080 <getchar@plt>
  4011e2:	48 8b 15 67 2e 00 00 	mov    0x2e67(%rip),%rdx        # 404050 <stdin@GLIBC_2.2.5>
  4011e9:	48 8b 85 f8 fe ff ff 	mov    -0x108(%rbp),%rax
  4011f0:	89 c1                	mov    %eax,%ecx
  4011f2:	48 8d 85 00 ff ff ff 	lea    -0x100(%rbp),%rax
  4011f9:	89 ce                	mov    %ecx,%esi
  4011fb:	48 89 c7             	mov    %rax,%rdi
  4011fe:	e8 5d fe ff ff       	call   401060 <fgets@plt>
  401203:	b8 00 00 00 00       	mov    $0x0,%eax
  401208:	c9                   	leave
  401209:	c3                   	ret

Disassembly of section .fini:

000000000040120c <_fini>:
  40120c:	f3 0f 1e fa          	endbr64
  401210:	48 83 ec 08          	sub    $0x8,%rsp
  401214:	48 83 c4 08          	add    $0x8,%rsp
  401218:	c3                   	ret

Disassembly of section .sframe:

0000000000402120 <.sframe>:
  402120:	e2 de                	loop   402100 <__GNU_EH_FRAME_HDR+0xc8>
  402122:	02 05 03 00 f8 00    	add    0xf80003(%rip),%al        # 138212b <_end+0xf7e0cb>
  402128:	03 00                	add    (%rax),%eax
  40212a:	00 00                	add    %al,(%rax)
  40212c:	05 00 00 00 0f       	add    $0xf000000,%eax
  402131:	00 00                	add    %al,(%rax)
  402133:	00 00                	add    %al,(%rax)
  402135:	00 00                	add    %al,(%rax)
  402137:	00 3c 00             	add    %bh,(%rax,%rax,1)
  40213a:	00 00                	add    %al,(%rax)
  40213c:	e4 ee                	in     $0xee,%al
  40213e:	ff                   	(bad)
  40213f:	ff 10                	call   *(%rax)
  402141:	00 00                	add    %al,(%rax)
  402143:	00 03                	add    %al,(%rbx)
  402145:	00 00                	add    %al,(%rax)
  402147:	00 02                	add    %al,(%rdx)
  402149:	00 00                	add    %al,(%rax)
  40214b:	00 00                	add    %al,(%rax)
  40214d:	00 00                	add    %al,(%rax)
  40214f:	00 e0                	add    %ah,%al
  402151:	ee                   	out    %al,(%dx)
  402152:	ff                   	(bad)
  402153:	ff 60 00             	jmp    *0x0(%rax)
  402156:	00 00                	add    %al,(%rax)
  402158:	09 00                	or     %eax,(%rax)
  40215a:	00 00                	add    %al,(%rax)
  40215c:	02 00                	add    (%rax),%al
  40215e:	00 00                	add    %al,(%rax)
  402160:	10 10                	adc    %dl,(%rax)
  402162:	00 00                	add    %al,(%rax)
  402164:	5c                   	pop    %rsp
  402165:	ef                   	out    %eax,(%dx)
  402166:	ff                   	(bad)
  402167:	ff 05 00 00 00 00    	incl   0x0(%rip)        # 40216d <__GNU_EH_FRAME_HDR+0x135>
  40216d:	00 00                	add    %al,(%rax)
  40216f:	00 01                	add    %al,(%rcx)
	...
  402179:	03 08                	add    (%rax),%ecx
  40217b:	00 03                	add    %al,(%rbx)
  40217d:	10 06                	adc    %al,(%rsi)
  40217f:	03 18                	add    (%rax),%ebx
  402181:	00 03                	add    %al,(%rbx)
  402183:	08 0b                	or     %cl,(%rbx)
  402185:	03 10                	add    (%rax),%edx
